; Function Attrs: mustprogress nounwind uwtable
define hidden noundef zeroext i1 @_ZNK13IdealLoopTree12is_invariantEP4Node(ptr noundef nonnull align 8 dereferenceable(113) %0, ptr nocapture noundef readonly %1) local_unnamed_addr #0 align 2 {
  %3 = getelementptr inbounds i8, ptr %0, i64 40
  %4 = load ptr, ptr %3, align 8
  %5 = getelementptr inbounds i8, ptr %1, i64 40
  %6 = load i32, ptr %5, align 8
  %7 = getelementptr inbounds i8, ptr %4, i64 32
  %8 = load i32, ptr %7, align 8
  %9 = icmp ugt i32 %8, %6
  br i1 %9, label %_ZNK14PhaseIdealLoop8has_ctrlEPK4Node.exit, label %_ZNK14PhaseIdealLoop8has_ctrlEPK4Node.exit.thread

_ZNK14PhaseIdealLoop8has_ctrlEPK4Node.exit:       ; preds = %2
  %10 = getelementptr inbounds i8, ptr %4, i64 40
  %11 = load ptr, ptr %10, align 8
  %12 = zext i32 %6 to i64
  %13 = getelementptr inbounds ptr, ptr %11, i64 %12
  %14 = load ptr, ptr %13, align 8
  %15 = ptrtoint ptr %14 to i64
  %16 = and i64 %15, 1
  %.not = icmp eq i64 %16, 0
  br i1 %.not, label %_ZNK14PhaseIdealLoop8has_ctrlEPK4Node.exit.thread, label %_ZNK14PhaseIdealLoop25get_ctrl_no_update_helperEPK4Node.exit.i.i

_ZNK14PhaseIdealLoop25get_ctrl_no_update_helperEPK4Node.exit.i.i: ; preds = %_ZNK14PhaseIdealLoop8has_ctrlEPK4Node.exit
  %17 = and i64 %15, -2
  %18 = inttoptr i64 %17 to ptr
  %19 = getelementptr inbounds i8, ptr %18, i64 8
  %20 = load ptr, ptr %19, align 8
  %21 = load ptr, ptr %20, align 8
  %.not.i.i = icmp eq ptr %21, null
  br i1 %.not.i.i, label %.preheader.i.i, label %_ZN14PhaseIdealLoop8get_ctrlEPK4Node.exit

.preheader.i.i:                                   ; preds = %_ZNK14PhaseIdealLoop25get_ctrl_no_update_helperEPK4Node.exit.i.i, %_ZNK14PhaseIdealLoop25get_ctrl_no_update_helperEPK4Node.exit8.i.i
  %.0.i.i = phi ptr [ %32, %_ZNK14PhaseIdealLoop25get_ctrl_no_update_helperEPK4Node.exit8.i.i ], [ %18, %_ZNK14PhaseIdealLoop25get_ctrl_no_update_helperEPK4Node.exit.i.i ]
  %22 = getelementptr inbounds i8, ptr %.0.i.i, i64 40
  %23 = load i32, ptr %22, align 8
  %24 = icmp ugt i32 %8, %23
  br i1 %24, label %25, label %_ZNK14PhaseIdealLoop25get_ctrl_no_update_helperEPK4Node.exit8.i.i

25:                                               ; preds = %.preheader.i.i
  %26 = zext i32 %23 to i64
  %27 = getelementptr inbounds ptr, ptr %11, i64 %26
  %28 = load ptr, ptr %27, align 8
  %29 = ptrtoint ptr %28 to i64
  %30 = and i64 %29, -2
  %31 = inttoptr i64 %30 to ptr
  br label %_ZNK14PhaseIdealLoop25get_ctrl_no_update_helperEPK4Node.exit8.i.i

_ZNK14PhaseIdealLoop25get_ctrl_no_update_helperEPK4Node.exit8.i.i: ; preds = %25, %.preheader.i.i
  %32 = phi ptr [ %31, %25 ], [ null, %.preheader.i.i ]
  %33 = getelementptr inbounds i8, ptr %32, i64 8
  %34 = load ptr, ptr %33, align 8
  %35 = load ptr, ptr %34, align 8
  %.not7.i.i = icmp eq ptr %35, null
  br i1 %.not7.i.i, label %.preheader.i.i, label %_ZNK14PhaseIdealLoop18get_ctrl_no_updateEPK4Node.exit.i, !llvm.loop !9

_ZNK14PhaseIdealLoop18get_ctrl_no_updateEPK4Node.exit.i: ; preds = %_ZNK14PhaseIdealLoop25get_ctrl_no_update_helperEPK4Node.exit8.i.i
  %36 = getelementptr inbounds i8, ptr %32, i64 44
  %37 = load i32, ptr %36, align 4
  %38 = and i32 %37, 7
  %39 = icmp eq i32 %38, 5
  %spec.select.i.i = select i1 %39, ptr %35, ptr %32
  br label %_ZN14PhaseIdealLoop8get_ctrlEPK4Node.exit

_ZN14PhaseIdealLoop8get_ctrlEPK4Node.exit:        ; preds = %_ZNK14PhaseIdealLoop18get_ctrl_no_updateEPK4Node.exit.i, %_ZNK14PhaseIdealLoop25get_ctrl_no_update_helperEPK4Node.exit.i.i
  %.1.i.i9 = phi ptr [ %spec.select.i.i, %_ZNK14PhaseIdealLoop18get_ctrl_no_updateEPK4Node.exit.i ], [ %18, %_ZNK14PhaseIdealLoop25get_ctrl_no_update_helperEPK4Node.exit.i.i ]
  %40 = ptrtoint ptr %.1.i.i9 to i64
  %41 = add nsw i64 %40, 1
  %42 = inttoptr i64 %41 to ptr
  store ptr %42, ptr %13, align 8
  br label %_ZNK14PhaseIdealLoop8has_ctrlEPK4Node.exit.thread

_ZNK14PhaseIdealLoop8has_ctrlEPK4Node.exit.thread: ; preds = %2, %_ZNK14PhaseIdealLoop8has_ctrlEPK4Node.exit, %_ZN14PhaseIdealLoop8get_ctrlEPK4Node.exit
  %43 = phi ptr [ %.1.i.i9, %_ZN14PhaseIdealLoop8get_ctrlEPK4Node.exit ], [ %1, %_ZNK14PhaseIdealLoop8has_ctrlEPK4Node.exit ], [ %1, %2 ]
  %44 = getelementptr inbounds i8, ptr %43, i64 16
  %45 = load ptr, ptr %44, align 8
  %46 = icmp eq ptr %45, null
  br i1 %46, label %63, label %47

47:                                               ; preds = %_ZNK14PhaseIdealLoop8has_ctrlEPK4Node.exit.thread
  %48 = load ptr, ptr %3, align 8
  %49 = getelementptr inbounds i8, ptr %43, i64 40
  %50 = load i32, ptr %49, align 8
  %51 = getelementptr inbounds i8, ptr %48, i64 32
  %52 = load i32, ptr %51, align 8
  %53 = icmp ugt i32 %52, %50
  br i1 %53, label %_ZNK14PhaseIdealLoop8has_nodeEPK4Node.exit.i, label %_ZNK14PhaseIdealLoop8has_nodeEPK4Node.exit.thread.i

_ZNK14PhaseIdealLoop8has_nodeEPK4Node.exit.i:     ; preds = %47
  %54 = getelementptr inbounds i8, ptr %48, i64 40
  %55 = load ptr, ptr %54, align 8
  %56 = zext i32 %50 to i64
  %57 = getelementptr inbounds ptr, ptr %55, i64 %56
  %58 = load ptr, ptr %57, align 8
  %.not.i = icmp eq ptr %58, null
  br i1 %.not.i, label %_ZNK14PhaseIdealLoop8has_nodeEPK4Node.exit.thread.i, label %_ZNK14PhaseIdealLoop8get_loopEP4Node.exit

_ZNK14PhaseIdealLoop8has_nodeEPK4Node.exit.thread.i: ; preds = %_ZNK14PhaseIdealLoop8has_nodeEPK4Node.exit.i, %47
  %59 = getelementptr inbounds i8, ptr %48, i64 64
  %60 = load ptr, ptr %59, align 8
  br label %_ZNK14PhaseIdealLoop8get_loopEP4Node.exit

_ZNK14PhaseIdealLoop8get_loopEP4Node.exit:        ; preds = %_ZNK14PhaseIdealLoop8has_nodeEPK4Node.exit.i, %_ZNK14PhaseIdealLoop8has_nodeEPK4Node.exit.thread.i
  %.0.i = phi ptr [ %60, %_ZNK14PhaseIdealLoop8has_nodeEPK4Node.exit.thread.i ], [ %58, %_ZNK14PhaseIdealLoop8has_nodeEPK4Node.exit.i ]
  %61 = tail call noundef zeroext i1 @_ZNK13IdealLoopTree9is_memberEPKS_(ptr noundef nonnull align 8 dereferenceable(113) %0, ptr noundef %.0.i) #11
  %62 = xor i1 %61, true
  br label %63

63:                                               ; preds = %_ZNK14PhaseIdealLoop8has_ctrlEPK4Node.exit.thread, %_ZNK14PhaseIdealLoop8get_loopEP4Node.exit
  %.0 = phi i1 [ %62, %_ZNK14PhaseIdealLoop8get_loopEP4Node.exit ], [ false, %_ZNK14PhaseIdealLoop8has_ctrlEPK4Node.exit.thread ]
  ret i1 %.0
}